; Function Attrs: nofree norecurse nosync nounwind memory(read, inaccessiblemem: none) uwtable
define hidden i32 @_cmsGetTagTrueType(ptr nocapture noundef readonly %0, i32 noundef %1) local_unnamed_addr #16 {
  %3 = getelementptr inbounds i8, ptr %0, i64 144
  %4 = getelementptr inbounds i8, ptr %0, i64 140
  %5 = load i32, ptr %4, align 4
  %6 = icmp sgt i32 %5, 0
  %wide.trip.count.i.i = zext nneg i32 %5 to i64
  %7 = getelementptr inbounds i8, ptr %0, i64 544
  br i1 %6, label %.lr.ph.preheader.i.i, label %_cmsSearchTag.exit.thread

.lr.ph.preheader.i.i:                             ; preds = %2, %SearchOneTag.exit.i
  %.011.i = phi i32 [ %14, %SearchOneTag.exit.i ], [ %1, %2 ]
  br label %.lr.ph.i.i

.lr.ph.i.i:                                       ; preds = %11, %.lr.ph.preheader.i.i
  %indvars.iv.i.i = phi i64 [ 0, %.lr.ph.preheader.i.i ], [ %indvars.iv.next.i.i, %11 ]
  %8 = getelementptr inbounds [100 x i32], ptr %3, i64 0, i64 %indvars.iv.i.i
  %9 = load i32, ptr %8, align 4
  %10 = icmp eq i32 %9, %.011.i
  br i1 %10, label %SearchOneTag.exit.i, label %11

11:                                               ; preds = %.lr.ph.i.i
  %indvars.iv.next.i.i = add nuw nsw i64 %indvars.iv.i.i, 1
  %exitcond.not.i.i = icmp eq i64 %indvars.iv.next.i.i, %wide.trip.count.i.i
  br i1 %exitcond.not.i.i, label %_cmsSearchTag.exit.thread, label %.lr.ph.i.i, !llvm.loop !8

SearchOneTag.exit.i:                              ; preds = %.lr.ph.i.i
  %12 = and i64 %indvars.iv.i.i, 4294967295
  %13 = getelementptr inbounds [100 x i32], ptr %7, i64 0, i64 %12
  %14 = load i32, ptr %13, align 4
  %.not14.i = icmp eq i32 %14, 0
  br i1 %.not14.i, label %_cmsSearchTag.exit, label %.lr.ph.preheader.i.i, !llvm.loop !9

_cmsSearchTag.exit:                               ; preds = %SearchOneTag.exit.i
  %15 = getelementptr inbounds i8, ptr %0, i64 2944
  %16 = getelementptr inbounds [100 x ptr], ptr %15, i64 0, i64 %12
  %17 = load ptr, ptr %16, align 8
  %18 = load i32, ptr %17, align 8
  br label %_cmsSearchTag.exit.thread

_cmsSearchTag.exit.thread:                        ; preds = %11, %2, %_cmsSearchTag.exit
  %.0 = phi i32 [ %18, %_cmsSearchTag.exit ], [ 0, %2 ], [ 0, %11 ]
  ret i32 %.0
}